; Function Attrs: nounwind uwtable
define dso_local i32 @select_g_job_init(ptr noundef %0) local_unnamed_addr #0 {
  %2 = load ptr, ptr @ops, align 8
  %3 = load i32, ptr @select_context_default, align 4
  %4 = sext i32 %3 to i64
  %5 = getelementptr inbounds %struct.slurm_select_ops_t, ptr %2, i64 %4, i32 3
  %6 = load ptr, ptr %5, align 8
  %7 = tail call i32 %6(ptr noundef %0) #15
  ret i32 %7
}